target datalayout = "e-m:e-p270:32:32-p271:32:32-p272:64:64-i64:64-i128:128-f80:128-n8:16:32:64-S128"
target triple = "x86_64-pc-linux-gnu"

%struct.parse = type { ptr, ptr, i32, ptr, i64, i64, i32, ptr, [10 x i64], [10 x i64] }
%struct.re_guts = type { ptr, ptr, ptr, i32, i32, i32, i32, i64, i64, i64, i32, i32, i32, ptr, i32, i32, i64, i64 }

@nuls = internal global [10 x i8] zeroinitializer, align 1

; Function Attrs: nounwind uwtable
define internal void @seterr(ptr noundef %0, i32 noundef %1) #0 {
  %3 = alloca ptr, align 8
  %4 = alloca i32, align 4
  store ptr %0, ptr %3, align 8
  store i32 %1, ptr %4, align 4
  %5 = load ptr, ptr %3, align 8
  %6 = getelementptr inbounds %struct.parse, ptr %5, i32 0, i32 2
  %7 = load i32, ptr %6, align 8
  %8 = icmp eq i32 %7, 0
  br i1 %8, label %9, label %13

9:                                                ; preds = %2
  %10 = load i32, ptr %4, align 4
  %11 = load ptr, ptr %3, align 8
  %12 = getelementptr inbounds %struct.parse, ptr %11, i32 0, i32 2
  store i32 %10, ptr %12, align 8
  br label %13

13:                                               ; preds = %9, %2
  %14 = load ptr, ptr %3, align 8
  %15 = getelementptr inbounds %struct.parse, ptr %14, i32 0, i32 0
  store ptr @nuls, ptr %15, align 8
  %16 = load ptr, ptr %3, align 8
  %17 = getelementptr inbounds %struct.parse, ptr %16, i32 0, i32 1
  store ptr @nuls, ptr %17, align 8
  ret void
}

; Function Attrs: nounwind uwtable
define internal i32 @enlarge(ptr noundef %0, i64 noundef %1) #0 {
  %3 = alloca i32, align 4
  %4 = alloca ptr, align 8
  %5 = alloca i64, align 8
  %6 = alloca ptr, align 8
  store ptr %0, ptr %4, align 8
  store i64 %1, ptr %5, align 8
  %7 = load ptr, ptr %4, align 8
  %8 = getelementptr inbounds %struct.parse, ptr %7, i32 0, i32 4
  %9 = load i64, ptr %8, align 8
  %10 = load i64, ptr %5, align 8
  %11 = icmp sge i64 %9, %10
  br i1 %11, label %12, label %13

12:                                               ; preds = %2
  store i32 1, ptr %3, align 4
  br label %31

13:                                               ; preds = %2
  %14 = load ptr, ptr %4, align 8
  %15 = getelementptr inbounds %struct.parse, ptr %14, i32 0, i32 3
  %16 = load ptr, ptr %15, align 8
  %17 = load i64, ptr %5, align 8
  %18 = mul i64 %17, 8
  %19 = call ptr @cli_max_realloc(ptr noundef %16, i64 noundef %18)
  store ptr %19, ptr %6, align 8
  %20 = load ptr, ptr %6, align 8
  %21 = icmp eq ptr %20, null
  br i1 %21, label %22, label %24

22:                                               ; preds = %13
  %23 = load ptr, ptr %4, align 8
  call void @seterr(ptr noundef %23, i32 noundef 12)
  store i32 0, ptr %3, align 4
  br label %31

24:                                               ; preds = %13
  %25 = load ptr, ptr %6, align 8
  %26 = load ptr, ptr %4, align 8
  %27 = getelementptr inbounds %struct.parse, ptr %26, i32 0, i32 3
  store ptr %25, ptr %27, align 8
  %28 = load i64, ptr %5, align 8
  %29 = load ptr, ptr %4, align 8
  %30 = getelementptr inbounds %struct.parse, ptr %29, i32 0, i32 4
  store i64 %28, ptr %30, align 8
  store i32 1, ptr %3, align 4
  br label %31

31:                                               ; preds = %24, %22, %12
  %32 = load i32, ptr %3, align 4
  ret i32 %32
}

; Function Attrs: nounwind uwtable
define internal void @doemit(ptr noundef %0, i64 noundef %1, i64 noundef %2) #0 {
  %4 = alloca ptr, align 8
  %5 = alloca i64, align 8
  %6 = alloca i64, align 8
  store ptr %0, ptr %4, align 8
  store i64 %1, ptr %5, align 8
  store i64 %2, ptr %6, align 8
  %7 = load ptr, ptr %4, align 8
  %8 = getelementptr inbounds %struct.parse, ptr %7, i32 0, i32 2
  %9 = load i32, ptr %8, align 8
  %10 = icmp ne i32 %9, 0
  br i1 %10, label %11, label %12

11:                                               ; preds = %3
  br label %44

12:                                               ; preds = %3
  %13 = load ptr, ptr %4, align 8
  %14 = getelementptr inbounds %struct.parse, ptr %13, i32 0, i32 5
  %15 = load i64, ptr %14, align 8
  %16 = load ptr, ptr %4, align 8
  %17 = getelementptr inbounds %struct.parse, ptr %16, i32 0, i32 4
  %18 = load i64, ptr %17, align 8
  %19 = icmp sge i64 %15, %18
  br i1 %19, label %20, label %32

20:                                               ; preds = %12
  %21 = load ptr, ptr %4, align 8
  %22 = load ptr, ptr %4, align 8
  %23 = getelementptr inbounds %struct.parse, ptr %22, i32 0, i32 4
  %24 = load i64, ptr %23, align 8
  %25 = add nsw i64 %24, 1
  %26 = sdiv i64 %25, 2
  %27 = mul nsw i64 %26, 3
  %28 = call i32 @enlarge(ptr noundef %21, i64 noundef %27)
  %29 = icmp ne i32 %28, 0
  br i1 %29, label %31, label %30

30:                                               ; preds = %20
  br label %44

31:                                               ; preds = %20
  br label %32

32:                                               ; preds = %31, %12
  %33 = load i64, ptr %5, align 8
  %34 = load i64, ptr %6, align 8
  %35 = or i64 %33, %34
  %36 = load ptr, ptr %4, align 8
  %37 = getelementptr inbounds %struct.parse, ptr %36, i32 0, i32 3
  %38 = load ptr, ptr %37, align 8
  %39 = load ptr, ptr %4, align 8
  %40 = getelementptr inbounds %struct.parse, ptr %39, i32 0, i32 5
  %41 = load i64, ptr %40, align 8
  %42 = add nsw i64 %41, 1
  store i64 %42, ptr %40, align 8
  %43 = getelementptr inbounds i64, ptr %38, i64 %41
  store i64 %35, ptr %43, align 8
  br label %44

44:                                               ; preds = %32, %30, %11
  ret void
}

; Function Attrs: nounwind uwtable
define internal void @bothcases(ptr noundef %0, i32 noundef %1) #0 {
  %3 = alloca ptr, align 8
  %4 = alloca i32, align 4
  %5 = alloca ptr, align 8
  %6 = alloca ptr, align 8
  %7 = alloca [3 x i8], align 1
  store ptr %0, ptr %3, align 8
  store i32 %1, ptr %4, align 4
  %8 = load ptr, ptr %3, align 8
  %9 = getelementptr inbounds %struct.parse, ptr %8, i32 0, i32 0
  %10 = load ptr, ptr %9, align 8
  store ptr %10, ptr %5, align 8
  %11 = load ptr, ptr %3, align 8
  %12 = getelementptr inbounds %struct.parse, ptr %11, i32 0, i32 1
  %13 = load ptr, ptr %12, align 8
  store ptr %13, ptr %6, align 8
  %14 = load i32, ptr %4, align 4
  %15 = trunc i32 %14 to i8
  %16 = zext i8 %15 to i32
  store i32 %16, ptr %4, align 4
  %17 = getelementptr inbounds [3 x i8], ptr %7, i64 0, i64 0
  %18 = load ptr, ptr %3, align 8
  %19 = getelementptr inbounds %struct.parse, ptr %18, i32 0, i32 0
  store ptr %17, ptr %19, align 8
  %20 = getelementptr inbounds [3 x i8], ptr %7, i64 0, i64 0
  %21 = getelementptr inbounds i8, ptr %20, i64 2
  %22 = load ptr, ptr %3, align 8
  %23 = getelementptr inbounds %struct.parse, ptr %22, i32 0, i32 1
  store ptr %21, ptr %23, align 8
  %24 = load i32, ptr %4, align 4
  %25 = trunc i32 %24 to i8
  %26 = getelementptr inbounds [3 x i8], ptr %7, i64 0, i64 0
  store i8 %25, ptr %26, align 1
  %27 = getelementptr inbounds [3 x i8], ptr %7, i64 0, i64 1
  store i8 93, ptr %27, align 1
  %28 = getelementptr inbounds [3 x i8], ptr %7, i64 0, i64 2
  store i8 0, ptr %28, align 1
  %29 = load ptr, ptr %3, align 8
  call void @p_bracket(ptr noundef %29)
  %30 = load ptr, ptr %5, align 8
  %31 = load ptr, ptr %3, align 8
  %32 = getelementptr inbounds %struct.parse, ptr %31, i32 0, i32 0
  store ptr %30, ptr %32, align 8
  %33 = load ptr, ptr %6, align 8
  %34 = load ptr, ptr %3, align 8
  %35 = getelementptr inbounds %struct.parse, ptr %34, i32 0, i32 1
  store ptr %33, ptr %35, align 8
  ret void
}

; Function Attrs: nounwind uwtable
define internal signext i8 @othercase(i32 noundef %0) #0 {
  %2 = alloca i8, align 1
  %3 = alloca i32, align 4
  store i32 %0, ptr %3, align 4
  %4 = load i32, ptr %3, align 4
  %5 = trunc i32 %4 to i8
  %6 = zext i8 %5 to i32
  store i32 %6, ptr %3, align 4
  %7 = call ptr @__ctype_b_loc() #9
  %8 = load ptr, ptr %7, align 8
  %9 = load i32, ptr %3, align 4
  %10 = sext i32 %9 to i64
  %11 = getelementptr inbounds i16, ptr %8, i64 %10
  %12 = load i16, ptr %11, align 2
  %13 = zext i16 %12 to i32
  %14 = and i32 %13, 256
  %15 = icmp ne i32 %14, 0
  br i1 %15, label %16, label %20

16:                                               ; preds = %1
  %17 = load i32, ptr %3, align 4
  %18 = call i32 @tolower(i32 noundef %17) #7
  %19 = trunc i32 %18 to i8
  store i8 %19, ptr %2, align 1
  br label %37

20:                                               ; preds = %1
  %21 = call ptr @__ctype_b_loc() #9
  %22 = load ptr, ptr %21, align 8
  %23 = load i32, ptr %3, align 4
  %24 = sext i32 %23 to i64
  %25 = getelementptr inbounds i16, ptr %22, i64 %24
  %26 = load i16, ptr %25, align 2
  %27 = zext i16 %26 to i32
  %28 = and i32 %27, 512
  %29 = icmp ne i32 %28, 0
  br i1 %29, label %30, label %34

30:                                               ; preds = %20
  %31 = load i32, ptr %3, align 4
  %32 = call i32 @toupper(i32 noundef %31) #7
  %33 = trunc i32 %32 to i8
  store i8 %33, ptr %2, align 1
  br label %37

34:                                               ; preds = %20
  %35 = load i32, ptr %3, align 4
  %36 = trunc i32 %35 to i8
  store i8 %36, ptr %2, align 1
  br label %37

37:                                               ; preds = %34, %30, %16
  %38 = load i8, ptr %2, align 1
  ret i8 %38
}

; Function Attrs: nounwind uwtable
define internal void @ordinary(ptr noundef %0, i32 noundef %1) #0 {
  %3 = alloca ptr, align 8
  %4 = alloca i32, align 4
  store ptr %0, ptr %3, align 8
  store i32 %1, ptr %4, align 4
  %5 = load ptr, ptr %3, align 8
  %6 = getelementptr inbounds %struct.parse, ptr %5, i32 0, i32 7
  %7 = load ptr, ptr %6, align 8
  %8 = getelementptr inbounds %struct.re_guts, ptr %7, i32 0, i32 6
  %9 = load i32, ptr %8, align 4
  %10 = and i32 %9, 2
  %11 = icmp ne i32 %10, 0
  br i1 %11, label %12, label %33

12:                                               ; preds = %2
  %13 = call ptr @__ctype_b_loc() #9
  %14 = load ptr, ptr %13, align 8
  %15 = load i32, ptr %4, align 4
  %16 = trunc i32 %15 to i8
  %17 = zext i8 %16 to i32
  %18 = sext i32 %17 to i64
  %19 = getelementptr inbounds i16, ptr %14, i64 %18
  %20 = load i16, ptr %19, align 2
  %21 = zext i16 %20 to i32
  %22 = and i32 %21, 1024
  %23 = icmp ne i32 %22, 0
  br i1 %23, label %24, label %33

24:                                               ; preds = %12
  %25 = load i32, ptr %4, align 4
  %26 = call signext i8 @othercase(i32 noundef %25)
  %27 = sext i8 %26 to i32
  %28 = load i32, ptr %4, align 4
  %29 = icmp ne i32 %27, %28
  br i1 %29, label %30, label %33

30:                                               ; preds = %24
  %31 = load ptr, ptr %3, align 8
  %32 = load i32, ptr %4, align 4
  call void @bothcases(ptr noundef %31, i32 noundef %32)
  br label %38

33:                                               ; preds = %24, %12, %2
  %34 = load ptr, ptr %3, align 8
  %35 = load i32, ptr %4, align 4
  %36 = trunc i32 %35 to i8
  %37 = zext i8 %36 to i64
  call void @doemit(ptr noundef %34, i64 noundef 268435456, i64 noundef %37)
  br label %38

38:                                               ; preds = %33, %30
  ret void
}