; Function Attrs: nounwind uwtable
define internal fastcc void @ordinary(ptr noundef %0, i32 noundef %1) unnamed_addr #0 {
  %3 = alloca [3 x i8], align 1
  %4 = getelementptr inbounds i8, ptr %0, i64 56
  %5 = load ptr, ptr %4, align 8
  %6 = getelementptr inbounds i8, ptr %5, i64 36
  %7 = load i32, ptr %6, align 4
  %8 = and i32 %7, 2
  %.not = icmp eq i32 %8, 0
  br i1 %.not, label %._crit_edge, label %9

._crit_edge:                                      ; preds = %2
  %.pre = and i32 %1, 255
  br label %33

9:                                                ; preds = %2
  %10 = tail call ptr @__ctype_b_loc() #13
  %11 = load ptr, ptr %10, align 8
  %12 = and i32 %1, 255
  %13 = zext nneg i32 %12 to i64
  %14 = getelementptr inbounds i16, ptr %11, i64 %13
  %15 = load i16, ptr %14, align 2
  %16 = and i16 %15, 1024
  %.not7 = icmp eq i16 %16, 0
  br i1 %.not7, label %33, label %17

17:                                               ; preds = %9
  %18 = zext i16 %15 to i32
  %19 = and i32 %18, 256
  %.not.i = icmp eq i32 %19, 0
  br i1 %.not.i, label %22, label %20

20:                                               ; preds = %17
  %21 = tail call i32 @tolower(i32 noundef %12) #11
  br label %othercase.exit

22:                                               ; preds = %17
  %23 = and i32 %18, 512
  %.not7.i = icmp eq i32 %23, 0
  br i1 %.not7.i, label %othercase.exit, label %24

24:                                               ; preds = %22
  %25 = tail call i32 @toupper(i32 noundef %12) #11
  br label %othercase.exit

othercase.exit:                                   ; preds = %20, %22, %24
  %.0.in.i = phi i32 [ %21, %20 ], [ %25, %24 ], [ %1, %22 ]
  %sext = shl i32 %.0.in.i, 24
  %26 = ashr exact i32 %sext, 24
  %.not8 = icmp eq i32 %26, %1
  br i1 %.not8, label %33, label %27

27:                                               ; preds = %othercase.exit
  call void @llvm.lifetime.start.p0(i64 3, ptr nonnull %3)
  %28 = getelementptr inbounds i8, ptr %0, i64 8
  %29 = trunc i32 %1 to i8
  %30 = getelementptr inbounds i8, ptr %3, i64 2
  store i8 %29, ptr %3, align 1
  %31 = getelementptr inbounds i8, ptr %3, i64 1
  store i8 93, ptr %31, align 1
  store i8 0, ptr %30, align 1
  %32 = load <2 x ptr>, ptr %0, align 8
  store ptr %3, ptr %0, align 8
  store ptr %30, ptr %28, align 8
  call fastcc void @p_bracket(ptr noundef nonnull %0) #14
  store <2 x ptr> %32, ptr %0, align 8
  call void @llvm.lifetime.end.p0(i64 3, ptr nonnull %3)
  br label %doemit.exit

33:                                               ; preds = %._crit_edge, %othercase.exit, %9
  %.pre-phi = phi i32 [ %.pre, %._crit_edge ], [ %12, %othercase.exit ], [ %12, %9 ]
  %34 = getelementptr inbounds i8, ptr %0, i64 16
  %35 = load i32, ptr %34, align 8
  %.not.i9 = icmp eq i32 %35, 0
  br i1 %.not.i9, label %36, label %doemit.exit

36:                                               ; preds = %33
  %37 = getelementptr inbounds i8, ptr %0, i64 40
  %38 = load i64, ptr %37, align 8
  %39 = getelementptr inbounds i8, ptr %0, i64 32
  %40 = load i64, ptr %39, align 8
  %.not8.i = icmp slt i64 %38, %40
  br i1 %.not8.i, label %enlarge.exit.thread.i, label %41

41:                                               ; preds = %36
  %42 = add nsw i64 %40, 1
  %43 = sdiv i64 %42, 2
  %44 = mul nsw i64 %43, 3
  %.not.i.i = icmp slt i64 %40, %44
  br i1 %.not.i.i, label %45, label %enlarge.exit.thread.i

45:                                               ; preds = %41
  %46 = getelementptr inbounds i8, ptr %0, i64 24
  %47 = load ptr, ptr %46, align 8
  %48 = mul i64 %43, 24
  %49 = tail call ptr @cli_max_realloc(ptr noundef %47, i64 noundef %48) #12
  %50 = icmp eq ptr %49, null
  br i1 %50, label %51, label %55

51:                                               ; preds = %45
  %52 = load i32, ptr %34, align 8
  %53 = icmp eq i32 %52, 0
  br i1 %53, label %54, label %enlarge.exit.i

54:                                               ; preds = %51
  store i32 12, ptr %34, align 8
  br label %enlarge.exit.i

55:                                               ; preds = %45
  store ptr %49, ptr %46, align 8
  store i64 %44, ptr %39, align 8
  %.pre.i = load i64, ptr %37, align 8
  br label %enlarge.exit.thread.i

enlarge.exit.i:                                   ; preds = %54, %51
  store ptr @nuls, ptr %0, align 8
  %56 = getelementptr inbounds i8, ptr %0, i64 8
  store ptr @nuls, ptr %56, align 8
  br label %doemit.exit

enlarge.exit.thread.i:                            ; preds = %55, %41, %36
  %57 = phi i64 [ %38, %41 ], [ %.pre.i, %55 ], [ %38, %36 ]
  %58 = or disjoint i32 %.pre-phi, 268435456
  %59 = zext nneg i32 %58 to i64
  %60 = getelementptr inbounds i8, ptr %0, i64 24
  %61 = load ptr, ptr %60, align 8
  %62 = add nsw i64 %57, 1
  store i64 %62, ptr %37, align 8
  %63 = getelementptr inbounds i64, ptr %61, i64 %57
  store i64 %59, ptr %63, align 8
  br label %doemit.exit

doemit.exit:                                      ; preds = %enlarge.exit.thread.i, %enlarge.exit.i, %33, %27
  ret void
}